Certificate:
    Data:
        Version: 3 (0x2)
        Serial Number: 1 (0x1)
        Signature Algorithm: sha256WithRSAEncryption
        Issuer: O=superbox, CN=superbox RAUC CA Root
        Validity
            Not Before: Jan  1 00:00:00 1970 GMT
            Not After : Dec 31 23:59:59 9999 GMT
        Subject: O=superbox, CN=superbox RAUC CA Root
        Subject Public Key Info:
            Public Key Algorithm: rsaEncryption
                Public-Key: (2048 bit)
                Modulus:
                    00:8a:6a:16:77:19:09:5f:9f:37:cc:a7:23:a1:b8:
                    56:fe:5a:45:c2:10:f3:23:a3:d7:d4:0c:f8:b1:27:
                    ce:83:0c:bb:58:e2:bb:7c:49:85:ae:60:da:39:23:
                    36:fb:6d:e4:d2:cb:6e:be:8f:f0:a3:04:15:23:de:
                    60:3c:d3:41:b0:1b:b0:f1:ef:0e:66:2d:3f:de:82:
                    25:d6:b4:64:ef:df:d3:03:77:ec:b5:73:4e:22:5c:
                    96:9e:9d:20:de:04:7a:48:25:8c:b0:5b:d9:ee:2a:
                    ad:0a:59:f9:0b:ce:de:07:f6:74:d2:7b:55:8b:b7:
                    15:b2:5b:3c:b6:55:91:9a:64:bf:10:d8:a6:62:77:
                    30:79:a1:19:3b:f9:ad:bd:9b:6b:fb:39:ad:77:0e:
                    82:2a:9e:49:e2:be:21:82:9a:7d:6f:0a:e4:6d:6f:
                    c9:bc:c9:40:ef:b2:cb:29:ef:ca:01:f7:28:3d:90:
                    c7:93:15:e1:2e:a6:ba:40:03:96:e4:05:b1:0d:d8:
                    c7:1c:76:65:36:ed:b8:c3:ac:d6:a7:36:f6:b0:2a:
                    5f:81:a2:02:c2:d6:7d:f3:ad:fb:40:bb:82:d7:f7:
                    b4:88:35:a9:e0:5a:c8:55:02:ee:0b:fa:ca:0c:34:
                    88:bd:a4:52:1c:7c:c6:fb:30:65:51:59:26:57:00:
                    9d:99
                Exponent: 65537 (0x10001)
        X509v3 extensions:
            X509v3 Subject Key Identifier:
                5E:7F:C6:13:8B:99:53:85:03:66:2A:59:DE:C4:3A:76:CC:B4:15:28
            X509v3 Authority Key Identifier:
                keyid:5E:7F:C6:13:8B:99:53:85:03:66:2A:59:DE:C4:3A:76:CC:B4:15:28
                DirName:/O=superbox/CN=superbox RAUC CA Root
                serial:01
            X509v3 Basic Constraints:
                CA:TRUE
    Signature Algorithm: sha256WithRSAEncryption
    Signature Value:
        00:ab:65:f7:b2:2a:c4:3e:5a:22:36:b6:0d:44:84:f4:3f:8f:
        45:5f:50:01:7c:d8:8a:15:ed:54:dd:e7:02:2e:b1:bb:e5:6f:
        37:cf:3a:03:52:26:d2:48:be:55:68:4b:20:9e:9f:58:2c:fe:
        86:48:29:9c:b7:41:fc:6d:f4:8b:4a:5e:d7:aa:85:95:92:88:
        16:4a:16:b9:f4:89:71:da:60:95:86:e1:a2:67:b3:65:98:21:
        6b:60:07:a3:7b:58:7e:e7:c9:bc:79:e5:3a:fc:59:15:31:15:
        8e:5a:cc:3e:d8:1a:d4:f0:40:5c:13:c6:fa:90:08:8c:41:f0:
        60:61:a2:43:2b:bb:4a:35:4f:59:74:24:e6:0a:11:8b:f2:08:
        05:d3:03:8a:6a:78:cc:53:c4:1c:a6:32:a7:72:e9:80:92:1e:
        b2:9a:a6:e0:1d:f1:87:e6:4c:4d:53:f0:7d:23:a4:6f:2c:5e:
        83:6b:94:e9:98:b4:20:b5:93:71:01:99:50:cd:f2:55:75:26:
        91:c5:bc:47:f0:14:db:ce:7c:c4:5b:5e:ef:24:bf:03:14:da:
        49:6c:8d:25:50:a7:4d:07:21:d5:94:08:81:19:c8:09:be:e2:
        8b:18:bd:60:25:2a:97:01:97:ec:52:ae:7f:0e:6a:d8:69:1a:
        7a:74:f3:d2
-----BEGIN CERTIFICATE-----
MIIDcTCCAlmgAwIBAgIBATANBgkqhkiG9w0BAQsFADAzMREwDwYDVQQKDAhzdXBl
cmJveDEeMBwGA1UEAwwVc3VwZXJib3ggUkFVQyBDQSBSb290MCAXDTcwMDEwMTAw
MDAwMFoYDzk5OTkxMjMxMjM1OTU5WjAzMREwDwYDVQQKDAhzdXBlcmJveDEeMBwG
A1UEAwwVc3VwZXJib3ggUkFVQyBDQSBSb290MIIBIjANBgkqhkiG9w0BAQEFAAOC
AQ8AMIIBCgKCAQEAimoWdxkJX583zKcjobhW/lpFwhDzI6PX1Az4sSfOgwy7WOK7
fEmFrmDaOSM2+23k0stuvo/wowQVI95gPNNBsBuw8e8OZi0/3oIl1rRk79/TA3fs
tXNOIlyWnp0g3gR6SCWMsFvZ7iqtCln5C87eB/Z00ntVi7cVsls8tlWRmmS/ENim
YncweaEZO/mtvZtr+zmtdw6CKp5J4r4hgpp9bwrkbW/JvMlA77LLKe/KAfcoPZDH
kxXhLqa6QAOW5AWxDdjHHHZlNu24w6zWpzb2sCpfgaICwtZ98637QLuC1/e0iDWp
4FrIVQLuC/rKDDSIvaRSHHzG+zBlUVkmVwCdmQIDAQABo4GNMIGKMB0GA1UdDgQW
BBRef8YTi5lThQNmKlnexDp2zLQVKDBbBgNVHSMEVDBSgBRef8YTi5lThQNmKlne
xDp2zLQVKKE3pDUwMzERMA8GA1UECgwIc3VwZXJib3gxHjAcBgNVBAMMFXN1cGVy
Ym94IFJBVUMgQ0EgUm9vdIIBATAMBgNVHRMEBTADAQH/MA0GCSqGSIb3DQEBCwUA
A4IBAQAAq2X3sirEPloiNrYNRIT0P49FX1ABfNiKFe1U3ecCLrG75W83zzoDUibS
SL5VaEsgnp9YLP6GSCmct0H8bfSLSl7XqoWVkogWSha59Ilx2mCVhuGiZ7NlmCFr
YAeje1h+58m8eeU6/FkVMRWOWsw+2BrU8EBcE8b6kAiMQfBgYaJDK7tKNU9ZdCTm
ChGL8ggF0wOKanjMU8QcpjKncumAkh6ymqbgHfGH5kxNU/B9I6RvLF6Da5TpmLQg
tZNxAZlQzfJVdSaRxbxH8BTbznzEW17vJL8DFNpJbI0lUKdNByHVlAiBGcgJvuKL
GL1gJSqXAZfsUq5/DmrYaRp6dPPS
-----END CERTIFICATE-----
